target datalayout = "e-m:e-p270:32:32-p271:32:32-p272:64:64-i64:64-i128:128-f80:128-n8:16:32:64-S128"
target triple = "x86_64-pc-linux-gnu"

; Function Attrs: nounwind uwtable
define internal i32 @kwsysSystem__AppendByte(ptr noundef %0, ptr noundef %1, ptr noundef %2, ptr noundef %3, i8 noundef signext %4) #0 {
  %6 = alloca i32, align 4
  %7 = alloca ptr, align 8
  %8 = alloca ptr, align 8
  %9 = alloca ptr, align 8
  %10 = alloca ptr, align 8
  %11 = alloca i8, align 1
  %12 = alloca i64, align 8
  %13 = alloca ptr, align 8
  %14 = alloca i32, align 4
  store ptr %0, ptr %7, align 8, !tbaa !4
  store ptr %1, ptr %8, align 8, !tbaa !11
  store ptr %2, ptr %9, align 8, !tbaa !11
  store ptr %3, ptr %10, align 8, !tbaa !23
  store i8 %4, ptr %11, align 1, !tbaa !13
  %15 = load ptr, ptr %9, align 8, !tbaa !11
  %16 = load ptr, ptr %15, align 8, !tbaa !4
  %17 = load ptr, ptr %8, align 8, !tbaa !11
  %18 = load ptr, ptr %17, align 8, !tbaa !4
  %19 = ptrtoint ptr %16 to i64
  %20 = ptrtoint ptr %18 to i64
  %21 = sub i64 %19, %20
  %22 = load ptr, ptr %10, align 8, !tbaa !23
  %23 = load i32, ptr %22, align 4, !tbaa !9
  %24 = sext i32 %23 to i64
  %25 = icmp sge i64 %21, %24
  br i1 %25, label %26, label %69

26:                                               ; preds = %5
  call void @llvm.lifetime.start.p0(i64 8, ptr %12) #6
  %27 = load ptr, ptr %9, align 8, !tbaa !11
  %28 = load ptr, ptr %27, align 8, !tbaa !4
  %29 = load ptr, ptr %8, align 8, !tbaa !11
  %30 = load ptr, ptr %29, align 8, !tbaa !4
  %31 = ptrtoint ptr %28 to i64
  %32 = ptrtoint ptr %30 to i64
  %33 = sub i64 %31, %32
  store i64 %33, ptr %12, align 8, !tbaa !20
  call void @llvm.lifetime.start.p0(i64 8, ptr %13) #6
  %34 = load ptr, ptr %10, align 8, !tbaa !23
  %35 = load i32, ptr %34, align 4, !tbaa !9
  %36 = mul nsw i32 %35, 2
  %37 = sext i32 %36 to i64
  %38 = call noalias ptr @malloc(i64 noundef %37) #8
  store ptr %38, ptr %13, align 8, !tbaa !4
  %39 = load ptr, ptr %13, align 8, !tbaa !4
  %40 = icmp ne ptr %39, null
  br i1 %40, label %42, label %41

41:                                               ; preds = %26
  store i32 0, ptr %6, align 4
  store i32 1, ptr %14, align 4
  br label %66

42:                                               ; preds = %26
  %43 = load ptr, ptr %13, align 8, !tbaa !4
  %44 = load ptr, ptr %8, align 8, !tbaa !11
  %45 = load ptr, ptr %44, align 8, !tbaa !4
  %46 = load i64, ptr %12, align 8, !tbaa !20
  %47 = mul i64 %46, 1
  call void @llvm.memcpy.p0.p0.i64(ptr align 1 %43, ptr align 1 %45, i64 %47, i1 false)
  %48 = load ptr, ptr %8, align 8, !tbaa !11
  %49 = load ptr, ptr %48, align 8, !tbaa !4
  %50 = load ptr, ptr %7, align 8, !tbaa !4
  %51 = icmp ne ptr %49, %50
  br i1 %51, label %52, label %55

52:                                               ; preds = %42
  %53 = load ptr, ptr %8, align 8, !tbaa !11
  %54 = load ptr, ptr %53, align 8, !tbaa !4
  call void @free(ptr noundef %54) #6
  br label %55

55:                                               ; preds = %52, %42
  %56 = load ptr, ptr %13, align 8, !tbaa !4
  %57 = load ptr, ptr %8, align 8, !tbaa !11
  store ptr %56, ptr %57, align 8, !tbaa !4
  %58 = load ptr, ptr %8, align 8, !tbaa !11
  %59 = load ptr, ptr %58, align 8, !tbaa !4
  %60 = load i64, ptr %12, align 8, !tbaa !20
  %61 = getelementptr inbounds i8, ptr %59, i64 %60
  %62 = load ptr, ptr %9, align 8, !tbaa !11
  store ptr %61, ptr %62, align 8, !tbaa !4
  %63 = load ptr, ptr %10, align 8, !tbaa !23
  %64 = load i32, ptr %63, align 4, !tbaa !9
  %65 = mul nsw i32 %64, 2
  store i32 %65, ptr %63, align 4, !tbaa !9
  store i32 0, ptr %14, align 4
  br label %66

66:                                               ; preds = %55, %41
  call void @llvm.lifetime.end.p0(i64 8, ptr %13) #6
  call void @llvm.lifetime.end.p0(i64 8, ptr %12) #6
  %67 = load i32, ptr %14, align 4
  switch i32 %67, label %76 [
    i32 0, label %68
    i32 1, label %74
  ]

68:                                               ; preds = %66
  br label %69

69:                                               ; preds = %68, %5
  %70 = load i8, ptr %11, align 1, !tbaa !13
  %71 = load ptr, ptr %9, align 8, !tbaa !11
  %72 = load ptr, ptr %71, align 8, !tbaa !4
  %73 = getelementptr inbounds nuw i8, ptr %72, i32 1
  store ptr %73, ptr %71, align 8, !tbaa !4
  store i8 %70, ptr %72, align 1, !tbaa !13
  store i32 1, ptr %6, align 4
  br label %74

74:                                               ; preds = %69, %66
  %75 = load i32, ptr %6, align 4
  ret i32 %75

76:                                               ; preds = %66
  unreachable
}

; Function Attrs: nounwind uwtable
define internal i32 @kwsysSystem__AppendArgument(ptr noundef %0, ptr noundef %1, ptr noundef %2, ptr noundef %3, ptr noundef %4, ptr noundef %5, ptr noundef %6, ptr noundef %7) #0 {
  %9 = alloca i32, align 4
  %10 = alloca ptr, align 8
  %11 = alloca ptr, align 8
  %12 = alloca ptr, align 8
  %13 = alloca ptr, align 8
  %14 = alloca ptr, align 8
  %15 = alloca ptr, align 8
  %16 = alloca ptr, align 8
  %17 = alloca ptr, align 8
  %18 = alloca i64, align 8
  %19 = alloca ptr, align 8
  %20 = alloca i32, align 4
  store ptr %0, ptr %10, align 8, !tbaa !11
  store ptr %1, ptr %11, align 8, !tbaa !25
  store ptr %2, ptr %12, align 8, !tbaa !25
  store ptr %3, ptr %13, align 8, !tbaa !23
  store ptr %4, ptr %14, align 8, !tbaa !4
  store ptr %5, ptr %15, align 8, !tbaa !11
  store ptr %6, ptr %16, align 8, !tbaa !11
  store ptr %7, ptr %17, align 8, !tbaa !23
  %21 = load ptr, ptr %14, align 8, !tbaa !4
  %22 = load ptr, ptr %15, align 8, !tbaa !11
  %23 = load ptr, ptr %16, align 8, !tbaa !11
  %24 = load ptr, ptr %17, align 8, !tbaa !23
  %25 = call i32 @kwsysSystem__AppendByte(ptr noundef %21, ptr noundef %22, ptr noundef %23, ptr noundef %24, i8 noundef signext 0)
  %26 = icmp ne i32 %25, 0
  br i1 %26, label %28, label %27

27:                                               ; preds = %8
  store i32 0, ptr %9, align 4
  br label %121

28:                                               ; preds = %8
  %29 = load ptr, ptr %12, align 8, !tbaa !25
  %30 = load ptr, ptr %29, align 8, !tbaa !11
  %31 = load ptr, ptr %11, align 8, !tbaa !25
  %32 = load ptr, ptr %31, align 8, !tbaa !11
  %33 = ptrtoint ptr %30 to i64
  %34 = ptrtoint ptr %32 to i64
  %35 = sub i64 %33, %34
  %36 = sdiv exact i64 %35, 8
  %37 = load ptr, ptr %13, align 8, !tbaa !23
  %38 = load i32, ptr %37, align 4, !tbaa !9
  %39 = sext i32 %38 to i64
  %40 = icmp sge i64 %36, %39
  br i1 %40, label %41, label %86

41:                                               ; preds = %28
  call void @llvm.lifetime.start.p0(i64 8, ptr %18) #6
  %42 = load ptr, ptr %12, align 8, !tbaa !25
  %43 = load ptr, ptr %42, align 8, !tbaa !11
  %44 = load ptr, ptr %11, align 8, !tbaa !25
  %45 = load ptr, ptr %44, align 8, !tbaa !11
  %46 = ptrtoint ptr %43 to i64
  %47 = ptrtoint ptr %45 to i64
  %48 = sub i64 %46, %47
  %49 = sdiv exact i64 %48, 8
  store i64 %49, ptr %18, align 8, !tbaa !20
  call void @llvm.lifetime.start.p0(i64 8, ptr %19) #6
  %50 = load ptr, ptr %13, align 8, !tbaa !23
  %51 = load i32, ptr %50, align 4, !tbaa !9
  %52 = sext i32 %51 to i64
  %53 = mul i64 %52, 2
  %54 = mul i64 %53, 8
  %55 = call noalias ptr @malloc(i64 noundef %54) #8
  store ptr %55, ptr %19, align 8, !tbaa !11
  %56 = load ptr, ptr %19, align 8, !tbaa !11
  %57 = icmp ne ptr %56, null
  br i1 %57, label %59, label %58

58:                                               ; preds = %41
  store i32 0, ptr %9, align 4
  store i32 1, ptr %20, align 4
  br label %83

59:                                               ; preds = %41
  %60 = load ptr, ptr %19, align 8, !tbaa !11
  %61 = load ptr, ptr %11, align 8, !tbaa !25
  %62 = load ptr, ptr %61, align 8, !tbaa !11
  %63 = load i64, ptr %18, align 8, !tbaa !20
  %64 = mul i64 %63, 8
  call void @llvm.memcpy.p0.p0.i64(ptr align 8 %60, ptr align 8 %62, i64 %64, i1 false)
  %65 = load ptr, ptr %11, align 8, !tbaa !25
  %66 = load ptr, ptr %65, align 8, !tbaa !11
  %67 = load ptr, ptr %10, align 8, !tbaa !11
  %68 = icmp ne ptr %66, %67
  br i1 %68, label %69, label %72

69:                                               ; preds = %59
  %70 = load ptr, ptr %11, align 8, !tbaa !25
  %71 = load ptr, ptr %70, align 8, !tbaa !11
  call void @free(ptr noundef %71) #6
  br label %72

72:                                               ; preds = %69, %59
  %73 = load ptr, ptr %19, align 8, !tbaa !11
  %74 = load ptr, ptr %11, align 8, !tbaa !25
  store ptr %73, ptr %74, align 8, !tbaa !11
  %75 = load ptr, ptr %11, align 8, !tbaa !25
  %76 = load ptr, ptr %75, align 8, !tbaa !11
  %77 = load i64, ptr %18, align 8, !tbaa !20
  %78 = getelementptr inbounds ptr, ptr %76, i64 %77
  %79 = load ptr, ptr %12, align 8, !tbaa !25
  store ptr %78, ptr %79, align 8, !tbaa !11
  %80 = load ptr, ptr %13, align 8, !tbaa !23
  %81 = load i32, ptr %80, align 4, !tbaa !9
  %82 = mul nsw i32 %81, 2
  store i32 %82, ptr %80, align 4, !tbaa !9
  store i32 0, ptr %20, align 4
  br label %83

83:                                               ; preds = %72, %58
  call void @llvm.lifetime.end.p0(i64 8, ptr %19) #6
  call void @llvm.lifetime.end.p0(i64 8, ptr %18) #6
  %84 = load i32, ptr %20, align 4
  switch i32 %84, label %123 [
    i32 0, label %85
    i32 1, label %121
  ]

85:                                               ; preds = %83
  br label %86

86:                                               ; preds = %85, %28
  %87 = load ptr, ptr %16, align 8, !tbaa !11
  %88 = load ptr, ptr %87, align 8, !tbaa !4
  %89 = load ptr, ptr %15, align 8, !tbaa !11
  %90 = load ptr, ptr %89, align 8, !tbaa !4
  %91 = ptrtoint ptr %88 to i64
  %92 = ptrtoint ptr %90 to i64
  %93 = sub i64 %91, %92
  %94 = call noalias ptr @malloc(i64 noundef %93) #8
  %95 = load ptr, ptr %12, align 8, !tbaa !25
  %96 = load ptr, ptr %95, align 8, !tbaa !11
  store ptr %94, ptr %96, align 8, !tbaa !4
  %97 = load ptr, ptr %12, align 8, !tbaa !25
  %98 = load ptr, ptr %97, align 8, !tbaa !11
  %99 = load ptr, ptr %98, align 8, !tbaa !4
  %100 = icmp ne ptr %99, null
  br i1 %100, label %102, label %101

101:                                              ; preds = %86
  store i32 0, ptr %9, align 4
  br label %121

102:                                              ; preds = %86
  %103 = load ptr, ptr %12, align 8, !tbaa !25
  %104 = load ptr, ptr %103, align 8, !tbaa !11
  %105 = load ptr, ptr %104, align 8, !tbaa !4
  %106 = load ptr, ptr %15, align 8, !tbaa !11
  %107 = load ptr, ptr %106, align 8, !tbaa !4
  %108 = load ptr, ptr %16, align 8, !tbaa !11
  %109 = load ptr, ptr %108, align 8, !tbaa !4
  %110 = load ptr, ptr %15, align 8, !tbaa !11
  %111 = load ptr, ptr %110, align 8, !tbaa !4
  %112 = ptrtoint ptr %109 to i64
  %113 = ptrtoint ptr %111 to i64
  %114 = sub i64 %112, %113
  call void @llvm.memcpy.p0.p0.i64(ptr align 1 %105, ptr align 1 %107, i64 %114, i1 false)
  %115 = load ptr, ptr %12, align 8, !tbaa !25
  %116 = load ptr, ptr %115, align 8, !tbaa !11
  %117 = getelementptr inbounds nuw ptr, ptr %116, i32 1
  store ptr %117, ptr %115, align 8, !tbaa !11
  %118 = load ptr, ptr %15, align 8, !tbaa !11
  %119 = load ptr, ptr %118, align 8, !tbaa !4
  %120 = load ptr, ptr %16, align 8, !tbaa !11
  store ptr %119, ptr %120, align 8, !tbaa !4
  store i32 1, ptr %9, align 4
  br label %121

121:                                              ; preds = %102, %101, %83, %27
  %122 = load i32, ptr %9, align 4
  ret i32 %122

123:                                              ; preds = %83
  unreachable
}