; Function Attrs: mustprogress nounwind willreturn uwtable
define internal fastcc range(i32 0, 2) i32 @kwsysSystem__AppendArgument(ptr noundef nonnull readnone %0, ptr noundef nonnull captures(none) %1, ptr noundef nonnull captures(none) %2, ptr noundef nonnull captures(none) %3, ptr noundef nonnull readnone %4, ptr noundef nonnull captures(none) %5, ptr noundef nonnull captures(none) %6, ptr noundef nonnull captures(none) %7) unnamed_addr #3 {
  %9 = load ptr, ptr %6, align 8, !tbaa !11
  %10 = load ptr, ptr %5, align 8, !tbaa !11
  %11 = ptrtoint ptr %9 to i64
  %12 = ptrtoint ptr %10 to i64
  %13 = sub i64 %11, %12
  %14 = load i32, ptr %7, align 4, !tbaa !4
  %15 = sext i32 %14 to i64
  %.not.i = icmp slt i64 %13, %15
  br i1 %.not.i, label %23, label %16

16:                                               ; preds = %8
  %17 = shl nsw i32 %14, 1
  %18 = sext i32 %17 to i64
  %19 = tail call noalias ptr @malloc(i64 noundef %18) #8
  %.not26.i = icmp eq ptr %19, null
  br i1 %.not26.i, label %kwsysSystem__AppendByte.exit.thread, label %20

20:                                               ; preds = %16
  tail call void @llvm.memcpy.p0.p0.i64(ptr nonnull align 1 %19, ptr align 1 %10, i64 %13, i1 false)
  %.not27.i = icmp eq ptr %10, %4
  br i1 %.not27.i, label %.thread.i, label %21

21:                                               ; preds = %20
  tail call void @free(ptr noundef %10) #7
  %.pre.i = load i32, ptr %7, align 4, !tbaa !4
  %.pre29.i = shl nsw i32 %.pre.i, 1
  br label %.thread.i

.thread.i:                                        ; preds = %21, %20
  %.pre-phi.i = phi i32 [ %17, %20 ], [ %.pre29.i, %21 ]
  store ptr %19, ptr %5, align 8, !tbaa !11
  %22 = getelementptr inbounds i8, ptr %19, i64 %13
  store i32 %.pre-phi.i, ptr %7, align 4, !tbaa !4
  br label %23

23:                                               ; preds = %.thread.i, %8
  %24 = phi ptr [ %22, %.thread.i ], [ %9, %8 ]
  %25 = getelementptr inbounds nuw i8, ptr %24, i64 1
  store ptr %25, ptr %6, align 8, !tbaa !11
  store i8 0, ptr %24, align 1, !tbaa !13
  %26 = load ptr, ptr %2, align 8, !tbaa !8
  %27 = load ptr, ptr %1, align 8, !tbaa !8
  %28 = ptrtoint ptr %26 to i64
  %29 = ptrtoint ptr %27 to i64
  %30 = sub i64 %28, %29
  %31 = ashr exact i64 %30, 3
  %32 = load i32, ptr %3, align 4, !tbaa !4
  %33 = sext i32 %32 to i64
  %.not41 = icmp slt i64 %31, %33
  br i1 %.not41, label %42, label %34

34:                                               ; preds = %23
  %35 = shl nsw i64 %33, 4
  %36 = tail call noalias ptr @malloc(i64 noundef %35) #8
  %.not42 = icmp eq ptr %36, null
  br i1 %.not42, label %kwsysSystem__AppendByte.exit.thread, label %37

37:                                               ; preds = %34
  tail call void @llvm.memcpy.p0.p0.i64(ptr nonnull align 8 %36, ptr align 8 %27, i64 %30, i1 false)
  %.not43 = icmp eq ptr %27, %0
  br i1 %.not43, label %.thread, label %38

38:                                               ; preds = %37
  tail call void @free(ptr noundef %27) #7
  %.pre = load i32, ptr %3, align 4, !tbaa !4
  br label %.thread

.thread:                                          ; preds = %37, %38
  %39 = phi i32 [ %32, %37 ], [ %.pre, %38 ]
  store ptr %36, ptr %1, align 8, !tbaa !8
  %40 = getelementptr inbounds i8, ptr %36, i64 %30
  store ptr %40, ptr %2, align 8, !tbaa !8
  %41 = shl nsw i32 %39, 1
  store i32 %41, ptr %3, align 4, !tbaa !4
  br label %42

42:                                               ; preds = %.thread, %23
  %43 = phi ptr [ %40, %.thread ], [ %26, %23 ]
  %44 = load ptr, ptr %6, align 8, !tbaa !11
  %45 = load ptr, ptr %5, align 8, !tbaa !11
  %46 = ptrtoint ptr %44 to i64
  %47 = ptrtoint ptr %45 to i64
  %48 = sub i64 %46, %47
  %49 = tail call noalias ptr @malloc(i64 noundef %48) #8
  store ptr %49, ptr %43, align 8, !tbaa !11
  %.not44 = icmp eq ptr %49, null
  br i1 %.not44, label %kwsysSystem__AppendByte.exit.thread, label %50

50:                                               ; preds = %42
  %51 = load ptr, ptr %5, align 8, !tbaa !11
  %52 = load ptr, ptr %6, align 8, !tbaa !11
  %53 = ptrtoint ptr %52 to i64
  %54 = ptrtoint ptr %51 to i64
  %55 = sub i64 %53, %54
  tail call void @llvm.memcpy.p0.p0.i64(ptr nonnull align 1 %49, ptr align 1 %51, i64 %55, i1 false)
  %56 = getelementptr inbounds nuw i8, ptr %43, i64 8
  store ptr %56, ptr %2, align 8, !tbaa !8
  store ptr %51, ptr %6, align 8, !tbaa !11
  br label %kwsysSystem__AppendByte.exit.thread

kwsysSystem__AppendByte.exit.thread:              ; preds = %16, %34, %42, %50
  %.035 = phi i32 [ 1, %50 ], [ 0, %42 ], [ 0, %34 ], [ 0, %16 ]
  ret i32 %.035
}